target datalayout = "e-m:e-p270:32:32-p271:32:32-p272:64:64-i64:64-i128:128-f80:128-n8:16:32:64-S128"
target triple = "x86_64-pc-linux-gnu"

%struct.ossl_param_st = type { ptr, i32, ptr, i64, i64 }

@.str.2 = private unnamed_addr constant [4 x i8] c"pub\00", align 1
@.str.5 = private unnamed_addr constant [5 x i8] c"seed\00", align 1
@.str.6 = private unnamed_addr constant [5 x i8] c"priv\00", align 1

; Function Attrs: nounwind uwtable
define internal i32 @ml_dsa_export(ptr noundef %0, i32 noundef %1, ptr noundef %2, ptr noundef %3) #0 {
  %5 = alloca i32, align 4
  %6 = alloca ptr, align 8
  %7 = alloca i32, align 4
  %8 = alloca ptr, align 8
  %9 = alloca ptr, align 8
  %10 = alloca ptr, align 8
  %11 = alloca [3 x %struct.ossl_param_st], align 16
  %12 = alloca ptr, align 8
  %13 = alloca i32, align 4
  %14 = alloca i32, align 4
  %15 = alloca i32, align 4
  %16 = alloca %struct.ossl_param_st, align 8
  %17 = alloca %struct.ossl_param_st, align 8
  %18 = alloca %struct.ossl_param_st, align 8
  %19 = alloca %struct.ossl_param_st, align 8
  store ptr %0, ptr %6, align 8, !tbaa !3
  store i32 %1, ptr %7, align 4, !tbaa !7
  store ptr %2, ptr %8, align 8, !tbaa !3
  store ptr %3, ptr %9, align 8, !tbaa !3
  call void @llvm.lifetime.start.p0(i64 8, ptr %10) #5
  %20 = load ptr, ptr %6, align 8, !tbaa !3
  store ptr %20, ptr %10, align 8, !tbaa !9
  call void @llvm.lifetime.start.p0(i64 120, ptr %11) #5
  call void @llvm.lifetime.start.p0(i64 8, ptr %12) #5
  call void @llvm.lifetime.start.p0(i64 4, ptr %13) #5
  call void @llvm.lifetime.start.p0(i64 4, ptr %14) #5
  store i32 0, ptr %14, align 4, !tbaa !7
  %21 = call i32 @ossl_prov_is_running()
  %22 = icmp ne i32 %21, 0
  br i1 %22, label %23, label %26

23:                                               ; preds = %4
  %24 = load ptr, ptr %10, align 8, !tbaa !9
  %25 = icmp eq ptr %24, null
  br i1 %25, label %26, label %27

26:                                               ; preds = %23, %4
  store i32 0, ptr %5, align 4
  store i32 1, ptr %15, align 4
  br label %89

27:                                               ; preds = %23
  %28 = load i32, ptr %7, align 4, !tbaa !7
  %29 = and i32 %28, 3
  %30 = icmp eq i32 %29, 0
  br i1 %30, label %31, label %32

31:                                               ; preds = %27
  store i32 0, ptr %5, align 4
  store i32 1, ptr %15, align 4
  br label %89

32:                                               ; preds = %27
  %33 = load i32, ptr %7, align 4, !tbaa !7
  %34 = and i32 %33, 1
  %35 = icmp ne i32 %34, 0
  %36 = zext i1 %35 to i32
  store i32 %36, ptr %13, align 4, !tbaa !7
  %37 = load i32, ptr %13, align 4, !tbaa !7
  %38 = icmp ne i32 %37, 0
  br i1 %38, label %39, label %62

39:                                               ; preds = %32
  %40 = load ptr, ptr %10, align 8, !tbaa !9
  %41 = call ptr @ossl_ml_dsa_key_get_seed(ptr noundef %40)
  store ptr %41, ptr %12, align 8, !tbaa !13
  %42 = icmp ne ptr %41, null
  br i1 %42, label %43, label %49

43:                                               ; preds = %39
  %44 = load i32, ptr %14, align 4, !tbaa !7
  %45 = add nsw i32 %44, 1
  store i32 %45, ptr %14, align 4, !tbaa !7
  %46 = sext i32 %44 to i64
  %47 = getelementptr inbounds [3 x %struct.ossl_param_st], ptr %11, i64 0, i64 %46
  call void @llvm.lifetime.start.p0(i64 40, ptr %16) #5
  %48 = load ptr, ptr %12, align 8, !tbaa !13
  call void @OSSL_PARAM_construct_octet_string(ptr dead_on_unwind writable sret(%struct.ossl_param_st) align 8 %16, ptr noundef @.str.5, ptr noundef %48, i64 noundef 32)
  call void @llvm.memcpy.p0.p0.i64(ptr align 8 %47, ptr align 8 %16, i64 40, i1 false), !tbaa.struct !15
  call void @llvm.lifetime.end.p0(i64 40, ptr %16) #5
  br label %49

49:                                               ; preds = %43, %39
  %50 = load ptr, ptr %10, align 8, !tbaa !9
  %51 = call ptr @ossl_ml_dsa_key_get_priv(ptr noundef %50)
  store ptr %51, ptr %12, align 8, !tbaa !13
  %52 = icmp ne ptr %51, null
  br i1 %52, label %53, label %61

53:                                               ; preds = %49
  %54 = load i32, ptr %14, align 4, !tbaa !7
  %55 = add nsw i32 %54, 1
  store i32 %55, ptr %14, align 4, !tbaa !7
  %56 = sext i32 %54 to i64
  %57 = getelementptr inbounds [3 x %struct.ossl_param_st], ptr %11, i64 0, i64 %56
  call void @llvm.lifetime.start.p0(i64 40, ptr %17) #5
  %58 = load ptr, ptr %12, align 8, !tbaa !13
  %59 = load ptr, ptr %10, align 8, !tbaa !9
  %60 = call i64 @ossl_ml_dsa_key_get_priv_len(ptr noundef %59)
  call void @OSSL_PARAM_construct_octet_string(ptr dead_on_unwind writable sret(%struct.ossl_param_st) align 8 %17, ptr noundef @.str.6, ptr noundef %58, i64 noundef %60)
  call void @llvm.memcpy.p0.p0.i64(ptr align 8 %57, ptr align 8 %17, i64 40, i1 false), !tbaa.struct !15
  call void @llvm.lifetime.end.p0(i64 40, ptr %17) #5
  br label %61

61:                                               ; preds = %53, %49
  br label %62

62:                                               ; preds = %61, %32
  %63 = load i32, ptr %14, align 4, !tbaa !7
  %64 = icmp eq i32 %63, 0
  br i1 %64, label %65, label %77

65:                                               ; preds = %62
  %66 = load ptr, ptr %10, align 8, !tbaa !9
  %67 = call ptr @ossl_ml_dsa_key_get_pub(ptr noundef %66)
  store ptr %67, ptr %12, align 8, !tbaa !13
  %68 = icmp ne ptr %67, null
  br i1 %68, label %69, label %77

69:                                               ; preds = %65
  %70 = load i32, ptr %14, align 4, !tbaa !7
  %71 = add nsw i32 %70, 1
  store i32 %71, ptr %14, align 4, !tbaa !7
  %72 = sext i32 %70 to i64
  %73 = getelementptr inbounds [3 x %struct.ossl_param_st], ptr %11, i64 0, i64 %72
  call void @llvm.lifetime.start.p0(i64 40, ptr %18) #5
  %74 = load ptr, ptr %12, align 8, !tbaa !13
  %75 = load ptr, ptr %10, align 8, !tbaa !9
  %76 = call i64 @ossl_ml_dsa_key_get_pub_len(ptr noundef %75)
  call void @OSSL_PARAM_construct_octet_string(ptr dead_on_unwind writable sret(%struct.ossl_param_st) align 8 %18, ptr noundef @.str.2, ptr noundef %74, i64 noundef %76)
  call void @llvm.memcpy.p0.p0.i64(ptr align 8 %73, ptr align 8 %18, i64 40, i1 false), !tbaa.struct !15
  call void @llvm.lifetime.end.p0(i64 40, ptr %18) #5
  br label %77

77:                                               ; preds = %69, %65, %62
  %78 = load i32, ptr %14, align 4, !tbaa !7
  %79 = icmp eq i32 %78, 0
  br i1 %79, label %80, label %81

80:                                               ; preds = %77
  store i32 0, ptr %5, align 4
  store i32 1, ptr %15, align 4
  br label %89

81:                                               ; preds = %77
  %82 = load i32, ptr %14, align 4, !tbaa !7
  %83 = sext i32 %82 to i64
  %84 = getelementptr inbounds [3 x %struct.ossl_param_st], ptr %11, i64 0, i64 %83
  call void @llvm.lifetime.start.p0(i64 40, ptr %19) #5
  call void @OSSL_PARAM_construct_end(ptr dead_on_unwind writable sret(%struct.ossl_param_st) align 8 %19)
  call void @llvm.memcpy.p0.p0.i64(ptr align 8 %84, ptr align 8 %19, i64 40, i1 false), !tbaa.struct !15
  call void @llvm.lifetime.end.p0(i64 40, ptr %19) #5
  %85 = load ptr, ptr %8, align 8, !tbaa !3
  %86 = getelementptr inbounds [3 x %struct.ossl_param_st], ptr %11, i64 0, i64 0
  %87 = load ptr, ptr %9, align 8, !tbaa !3
  %88 = call i32 %85(ptr noundef %86, ptr noundef %87)
  store i32 %88, ptr %5, align 4
  store i32 1, ptr %15, align 4
  br label %89

89:                                               ; preds = %81, %80, %31, %26
  call void @llvm.lifetime.end.p0(i64 4, ptr %14) #5
  call void @llvm.lifetime.end.p0(i64 4, ptr %13) #5
  call void @llvm.lifetime.end.p0(i64 8, ptr %12) #5
  call void @llvm.lifetime.end.p0(i64 120, ptr %11) #5
  call void @llvm.lifetime.end.p0(i64 8, ptr %10) #5
  %90 = load i32, ptr %5, align 4
  ret i32 %90
}