; Function Attrs: nounwind uwtable
define internal i32 @ml_dsa_export(ptr noundef %0, i32 noundef %1, ptr noundef readonly captures(none) %2, ptr noundef %3) #0 {
  %5 = alloca [3 x %struct.ossl_param_st], align 16
  %6 = alloca %struct.ossl_param_st, align 8
  %7 = alloca %struct.ossl_param_st, align 8
  call void @llvm.lifetime.start.p0(i64 120, ptr nonnull %5) #6
  %8 = tail call i32 @ossl_prov_is_running() #6
  %9 = icmp eq i32 %8, 0
  %10 = icmp eq ptr %0, null
  %or.cond = or i1 %10, %9
  %11 = and i32 %1, 3
  %12 = icmp eq i32 %11, 0
  %or.cond31 = or i1 %12, %or.cond
  br i1 %or.cond31, label %31, label %13

13:                                               ; preds = %4
  %14 = and i32 %1, 1
  %.not = icmp eq i32 %14, 0
  br i1 %.not, label %.thread, label %15

15:                                               ; preds = %13
  %16 = tail call ptr @ossl_ml_dsa_key_get_seed(ptr noundef nonnull %0) #6
  %.not27 = icmp eq ptr %16, null
  br i1 %.not27, label %17, label %.thread38

17:                                               ; preds = %15
  %18 = tail call ptr @ossl_ml_dsa_key_get_priv(ptr noundef nonnull %0) #6
  %.not28 = icmp eq ptr %18, null
  br i1 %.not28, label %.thread, label %.thread33

.thread38:                                        ; preds = %15
  call void @OSSL_PARAM_construct_octet_string(ptr dead_on_unwind nonnull writable sret(%struct.ossl_param_st) align 8 %5, ptr noundef nonnull @.str.5, ptr noundef nonnull %16, i64 noundef 32) #6
  %19 = call ptr @ossl_ml_dsa_key_get_priv(ptr noundef nonnull %0) #6
  %.not2840 = icmp eq ptr %19, null
  br i1 %.not2840, label %.thread42, label %.thread33

.thread33:                                        ; preds = %.thread38, %17
  %20 = phi ptr [ %19, %.thread38 ], [ %18, %17 ]
  %.141 = phi i32 [ 1, %.thread38 ], [ 0, %17 ]
  %21 = add nuw nsw i32 %.141, 1
  %22 = zext nneg i32 %.141 to i64
  %23 = getelementptr inbounds nuw [3 x %struct.ossl_param_st], ptr %5, i64 0, i64 %22
  call void @llvm.lifetime.start.p0(i64 40, ptr nonnull %6) #6
  %24 = call i64 @ossl_ml_dsa_key_get_priv_len(ptr noundef nonnull %0) #6
  call void @OSSL_PARAM_construct_octet_string(ptr dead_on_unwind nonnull writable sret(%struct.ossl_param_st) align 8 %6, ptr noundef nonnull @.str.6, ptr noundef nonnull %20, i64 noundef %24) #6
  call void @llvm.memcpy.p0.p0.i64(ptr noundef nonnull align 8 dereferenceable(40) %23, ptr noundef nonnull align 8 dereferenceable(40) %6, i64 40, i1 false), !tbaa.struct !15
  call void @llvm.lifetime.end.p0(i64 40, ptr nonnull %6) #6
  %25 = zext nneg i32 %21 to i64
  br label %.thread42

.thread:                                          ; preds = %17, %13
  %26 = tail call ptr @ossl_ml_dsa_key_get_pub(ptr noundef nonnull %0) #6
  %.not29 = icmp eq ptr %26, null
  br i1 %.not29, label %31, label %27

27:                                               ; preds = %.thread
  %28 = tail call i64 @ossl_ml_dsa_key_get_pub_len(ptr noundef nonnull %0) #6
  call void @OSSL_PARAM_construct_octet_string(ptr dead_on_unwind nonnull writable sret(%struct.ossl_param_st) align 8 %5, ptr noundef nonnull @.str.2, ptr noundef nonnull %26, i64 noundef %28) #6
  br label %.thread42

.thread42:                                        ; preds = %.thread38, %27, %.thread33
  %.2.ph = phi i64 [ %25, %.thread33 ], [ 1, %27 ], [ 1, %.thread38 ]
  %29 = getelementptr inbounds nuw [3 x %struct.ossl_param_st], ptr %5, i64 0, i64 %.2.ph
  call void @llvm.lifetime.start.p0(i64 40, ptr nonnull %7) #6
  call void @OSSL_PARAM_construct_end(ptr dead_on_unwind nonnull writable sret(%struct.ossl_param_st) align 8 %7) #6
  call void @llvm.memcpy.p0.p0.i64(ptr noundef nonnull align 8 dereferenceable(40) %29, ptr noundef nonnull align 8 dereferenceable(40) %7, i64 40, i1 false), !tbaa.struct !15
  call void @llvm.lifetime.end.p0(i64 40, ptr nonnull %7) #6
  %30 = call i32 %2(ptr noundef nonnull %5, ptr noundef %3) #6
  br label %31

31:                                               ; preds = %.thread, %4, %.thread42
  %.022 = phi i32 [ %30, %.thread42 ], [ 0, %4 ], [ 0, %.thread ]
  call void @llvm.lifetime.end.p0(i64 120, ptr nonnull %5) #6
  ret i32 %.022
}